; Function Attrs: mustprogress uwtable
define void @_ZN6icu_7525FCDUIterCollationIterator20forwardNumCodePointsEiR10UErrorCode(ptr noundef nonnull align 8 dereferenceable(488) %this, i32 noundef %num, ptr noundef nonnull align 4 dereferenceable(4) %errorCode) unnamed_addr #1 align 2 {
entry:
  %cmp3 = icmp sgt i32 %num, 0
  br i1 %cmp3, label %land.rhs, label %while.end

land.rhs:                                         ; preds = %entry, %land.rhs
  %num.addr.04 = phi i32 [ %dec, %land.rhs ], [ %num, %entry ]
  %call = tail call noundef i32 @_ZN6icu_7525FCDUIterCollationIterator13nextCodePointER10UErrorCode(ptr noundef nonnull align 8 dereferenceable(488) %this, ptr noundef nonnull align 4 dereferenceable(4) %errorCode)
  %cmp2 = icmp sgt i32 %call, -1
  %dec = add nsw i32 %num.addr.04, -1
  %cmp = icmp sgt i32 %num.addr.04, 1
  %or.cond = select i1 %cmp2, i1 %cmp, i1 false
  br i1 %or.cond, label %land.rhs, label %while.end, !llvm.loop !15

while.end:                                        ; preds = %land.rhs, %entry
  ret void
}